target datalayout = "e-m:e-p270:32:32-p271:32:32-p272:64:64-i64:64-i128:128-f80:128-n8:16:32:64-S128"
target triple = "x86_64-pc-linux-gnu"

; Function Attrs: inlinehint nounwind uwtable
define internal void @prepare_app_arguments(ptr noundef %0, ptr noundef %1) #4 {
  %3 = alloca ptr, align 8
  %4 = alloca ptr, align 8
  store ptr %0, ptr %3, align 8, !tbaa !60
  store ptr %1, ptr %4, align 8, !tbaa !62
  ret void
}

; Function Attrs: nounwind uwtable
define i32 @parse_options(ptr noundef %0, i32 noundef %1, ptr noundef %2, ptr noundef %3, ptr noundef %4) #0 {
  %6 = alloca i32, align 4
  %7 = alloca ptr, align 8
  %8 = alloca i32, align 4
  %9 = alloca ptr, align 8
  %10 = alloca ptr, align 8
  %11 = alloca ptr, align 8
  %12 = alloca ptr, align 8
  %13 = alloca i32, align 4
  %14 = alloca i32, align 4
  %15 = alloca i32, align 4
  %16 = alloca i32, align 4
  store ptr %0, ptr %7, align 8, !tbaa !4
  store i32 %1, ptr %8, align 4, !tbaa !8
  store ptr %2, ptr %9, align 8, !tbaa !56
  store ptr %3, ptr %10, align 8, !tbaa !21
  store ptr %4, ptr %11, align 8, !tbaa !4
  call void @llvm.lifetime.start.p0(i64 8, ptr %12) #11
  call void @llvm.lifetime.start.p0(i64 4, ptr %13) #11
  call void @llvm.lifetime.start.p0(i64 4, ptr %14) #11
  store i32 1, ptr %14, align 4, !tbaa !8
  call void @llvm.lifetime.start.p0(i64 4, ptr %15) #11
  call void @prepare_app_arguments(ptr noundef %8, ptr noundef %9)
  store i32 1, ptr %13, align 4, !tbaa !8
  br label %17

17:                                               ; preds = %88, %54, %5
  %18 = load i32, ptr %13, align 4, !tbaa !8
  %19 = load i32, ptr %8, align 4, !tbaa !8
  %20 = icmp slt i32 %18, %19
  br i1 %20, label %21, label %89

21:                                               ; preds = %17
  %22 = load ptr, ptr %9, align 8, !tbaa !56
  %23 = load i32, ptr %13, align 4, !tbaa !8
  %24 = add nsw i32 %23, 1
  store i32 %24, ptr %13, align 4, !tbaa !8
  %25 = sext i32 %23 to i64
  %26 = getelementptr inbounds ptr, ptr %22, i64 %25
  %27 = load ptr, ptr %26, align 8, !tbaa !10
  store ptr %27, ptr %12, align 8, !tbaa !10
  %28 = load i32, ptr %14, align 4, !tbaa !8
  %29 = icmp ne i32 %28, 0
  br i1 %29, label %30, label %74

30:                                               ; preds = %21
  %31 = load ptr, ptr %12, align 8, !tbaa !10
  %32 = getelementptr inbounds i8, ptr %31, i64 0
  %33 = load i8, ptr %32, align 1, !tbaa !20
  %34 = sext i8 %33 to i32
  %35 = icmp eq i32 %34, 45
  br i1 %35, label %36, label %74

36:                                               ; preds = %30
  %37 = load ptr, ptr %12, align 8, !tbaa !10
  %38 = getelementptr inbounds i8, ptr %37, i64 1
  %39 = load i8, ptr %38, align 1, !tbaa !20
  %40 = sext i8 %39 to i32
  %41 = icmp ne i32 %40, 0
  br i1 %41, label %42, label %74

42:                                               ; preds = %36
  %43 = load ptr, ptr %12, align 8, !tbaa !10
  %44 = getelementptr inbounds i8, ptr %43, i64 1
  %45 = load i8, ptr %44, align 1, !tbaa !20
  %46 = sext i8 %45 to i32
  %47 = icmp eq i32 %46, 45
  br i1 %47, label %48, label %55

48:                                               ; preds = %42
  %49 = load ptr, ptr %12, align 8, !tbaa !10
  %50 = getelementptr inbounds i8, ptr %49, i64 2
  %51 = load i8, ptr %50, align 1, !tbaa !20
  %52 = sext i8 %51 to i32
  %53 = icmp eq i32 %52, 0
  br i1 %53, label %54, label %55

54:                                               ; preds = %48
  store i32 0, ptr %14, align 4, !tbaa !8
  br label %17, !llvm.loop !59

55:                                               ; preds = %48, %42
  %56 = load ptr, ptr %12, align 8, !tbaa !10
  %57 = getelementptr inbounds nuw i8, ptr %56, i32 1
  store ptr %57, ptr %12, align 8, !tbaa !10
  %58 = load ptr, ptr %7, align 8, !tbaa !4
  %59 = load ptr, ptr %12, align 8, !tbaa !10
  %60 = load ptr, ptr %9, align 8, !tbaa !56
  %61 = load i32, ptr %13, align 4, !tbaa !8
  %62 = sext i32 %61 to i64
  %63 = getelementptr inbounds ptr, ptr %60, i64 %62
  %64 = load ptr, ptr %63, align 8, !tbaa !10
  %65 = load ptr, ptr %10, align 8, !tbaa !21
  %66 = call i32 @parse_option(ptr noundef %58, ptr noundef %59, ptr noundef %64, ptr noundef %65)
  store i32 %66, ptr %15, align 4, !tbaa !8
  %67 = icmp slt i32 %66, 0
  br i1 %67, label %68, label %70

68:                                               ; preds = %55
  %69 = load i32, ptr %15, align 4, !tbaa !8
  store i32 %69, ptr %6, align 4
  store i32 1, ptr %16, align 4
  br label %90

70:                                               ; preds = %55
  %71 = load i32, ptr %15, align 4, !tbaa !8
  %72 = load i32, ptr %13, align 4, !tbaa !8
  %73 = add nsw i32 %72, %71
  store i32 %73, ptr %13, align 4, !tbaa !8
  br label %88

74:                                               ; preds = %36, %30, %21
  %75 = load ptr, ptr %11, align 8, !tbaa !4
  %76 = icmp ne ptr %75, null
  br i1 %76, label %77, label %87

77:                                               ; preds = %74
  %78 = load ptr, ptr %11, align 8, !tbaa !4
  %79 = load ptr, ptr %7, align 8, !tbaa !4
  %80 = load ptr, ptr %12, align 8, !tbaa !10
  %81 = call i32 %78(ptr noundef %79, ptr noundef %80)
  store i32 %81, ptr %15, align 4, !tbaa !8
  %82 = load i32, ptr %15, align 4, !tbaa !8
  %83 = icmp slt i32 %82, 0
  br i1 %83, label %84, label %86

84:                                               ; preds = %77
  %85 = load i32, ptr %15, align 4, !tbaa !8
  store i32 %85, ptr %6, align 4
  store i32 1, ptr %16, align 4
  br label %90

86:                                               ; preds = %77
  br label %87

87:                                               ; preds = %86, %74
  br label %88

88:                                               ; preds = %87, %70
  br label %17, !llvm.loop !59

89:                                               ; preds = %17
  store i32 0, ptr %6, align 4
  store i32 1, ptr %16, align 4
  br label %90

90:                                               ; preds = %89, %84, %68
  call void @llvm.lifetime.end.p0(i64 4, ptr %15) #11
  call void @llvm.lifetime.end.p0(i64 4, ptr %14) #11
  call void @llvm.lifetime.end.p0(i64 4, ptr %13) #11
  call void @llvm.lifetime.end.p0(i64 8, ptr %12) #11
  %91 = load i32, ptr %6, align 4
  ret i32 %91
}