; Function Attrs: nounwind uwtable
define range(i32 -2147483648, 1) i32 @parse_options(ptr noundef %0, i32 noundef %1, ptr noundef readonly captures(none) %2, ptr noundef %3, ptr noundef readonly captures(address_is_null) %4) local_unnamed_addr #0 {
  %6 = icmp sgt i32 %1, 1
  br i1 %6, label %.lr.ph.lr.ph, label %.outer._crit_edge

.lr.ph.lr.ph:                                     ; preds = %5
  %.not29 = icmp eq ptr %4, null
  br i1 %.not29, label %.lr.ph.us, label %.lr.ph

.lr.ph.us:                                        ; preds = %.lr.ph.lr.ph, %.outer.loopexit.split.us.us
  %.not.us = phi i1 [ true, %.outer.loopexit.split.us.us ], [ false, %.lr.ph.lr.ph ]
  %.021.ph51.us = phi i32 [ %7, %.outer.loopexit.split.us.us ], [ 1, %.lr.ph.lr.ph ]
  br i1 %.not.us, label %.lr.ph.split.us, label %.lr.ph.split.us54

.lr.ph.split.us54:                                ; preds = %.lr.ph.us, %28
  %.02131.us45.us = phi i32 [ %.1.us46.us, %28 ], [ %.021.ph51.us, %.lr.ph.us ]
  %7 = add nsw i32 %.02131.us45.us, 1
  %8 = sext i32 %.02131.us45.us to i64
  %9 = getelementptr inbounds ptr, ptr %2, i64 %8
  %10 = load ptr, ptr %9, align 8, !tbaa !9
  %11 = load i8, ptr %10, align 1, !tbaa !11
  %12 = icmp eq i8 %11, 45
  br i1 %12, label %13, label %28

13:                                               ; preds = %.lr.ph.split.us54
  %14 = getelementptr inbounds nuw i8, ptr %10, i64 1
  %15 = load i8, ptr %14, align 1, !tbaa !11
  switch i8 %15, label %20 [
    i8 0, label %28
    i8 45, label %16
  ]

16:                                               ; preds = %13
  %17 = getelementptr inbounds nuw i8, ptr %10, i64 2
  %18 = load i8, ptr %17, align 1, !tbaa !11
  %19 = icmp eq i8 %18, 0
  br i1 %19, label %.outer.loopexit.split.us.us, label %20

20:                                               ; preds = %16, %13
  %21 = sext i32 %7 to i64
  %22 = getelementptr inbounds ptr, ptr %2, i64 %21
  %23 = load ptr, ptr %22, align 8, !tbaa !9
  %24 = tail call i32 @parse_option(ptr noundef %0, ptr noundef nonnull %14, ptr noundef %23, ptr noundef %3)
  %25 = icmp slt i32 %24, 0
  br i1 %25, label %.outer._crit_edge, label %26

26:                                               ; preds = %20
  %27 = add nsw i32 %24, %7
  br label %28

28:                                               ; preds = %.lr.ph.split.us54, %13, %26
  %.1.us46.us = phi i32 [ %27, %26 ], [ %7, %13 ], [ %7, %.lr.ph.split.us54 ]
  %29 = icmp slt i32 %.1.us46.us, %1
  br i1 %29, label %.lr.ph.split.us54, label %.outer._crit_edge, !llvm.loop !48

.outer.loopexit.split.us.us:                      ; preds = %16
  %30 = icmp slt i32 %7, %1
  br i1 %30, label %.lr.ph.us, label %.outer._crit_edge, !llvm.loop !48

.outer.loopexit.split:                            ; preds = %51
  %31 = icmp slt i32 %42, %1
  br i1 %31, label %.lr.ph, label %.outer._crit_edge, !llvm.loop !48

.lr.ph:                                           ; preds = %.lr.ph.lr.ph, %.outer.loopexit.split
  %.not = phi i1 [ true, %.outer.loopexit.split ], [ false, %.lr.ph.lr.ph ]
  %.021.ph51 = phi i32 [ %42, %.outer.loopexit.split ], [ 1, %.lr.ph.lr.ph ]
  br i1 %.not, label %.lr.ph.split.us, label %.lr.ph.split

.lr.ph.split.us:                                  ; preds = %.lr.ph, %.lr.ph.us
  %.us-phi56 = phi i32 [ %.021.ph51.us, %.lr.ph.us ], [ %.021.ph51, %.lr.ph ]
  %32 = sext i32 %.us-phi56 to i64
  %33 = zext nneg i32 %1 to i64
  br label %34

34:                                               ; preds = %40, %.lr.ph.split.us
  %indvars.iv = phi i64 [ %indvars.iv.next, %40 ], [ %32, %.lr.ph.split.us ]
  %indvars.iv.next = add nsw i64 %indvars.iv, 1
  br i1 %.not29, label %40, label %35

35:                                               ; preds = %34
  %36 = getelementptr inbounds ptr, ptr %2, i64 %indvars.iv
  %37 = load ptr, ptr %36, align 8, !tbaa !9
  %38 = tail call i32 %4(ptr noundef %0, ptr noundef %37) #15
  %39 = icmp slt i32 %38, 0
  br i1 %39, label %.outer._crit_edge, label %40

40:                                               ; preds = %35, %34
  %41 = icmp slt i64 %indvars.iv.next, %33
  br i1 %41, label %34, label %.outer._crit_edge, !llvm.loop !48

.lr.ph.split:                                     ; preds = %.lr.ph, %66
  %.02131 = phi i32 [ %.1, %66 ], [ %.021.ph51, %.lr.ph ]
  %42 = add nsw i32 %.02131, 1
  %43 = sext i32 %.02131 to i64
  %44 = getelementptr inbounds ptr, ptr %2, i64 %43
  %45 = load ptr, ptr %44, align 8, !tbaa !9
  %46 = load i8, ptr %45, align 1, !tbaa !11
  %47 = icmp eq i8 %46, 45
  br i1 %47, label %48, label %63

48:                                               ; preds = %.lr.ph.split
  %49 = getelementptr inbounds nuw i8, ptr %45, i64 1
  %50 = load i8, ptr %49, align 1, !tbaa !11
  switch i8 %50, label %55 [
    i8 0, label %63
    i8 45, label %51
  ]

51:                                               ; preds = %48
  %52 = getelementptr inbounds nuw i8, ptr %45, i64 2
  %53 = load i8, ptr %52, align 1, !tbaa !11
  %54 = icmp eq i8 %53, 0
  br i1 %54, label %.outer.loopexit.split, label %55

55:                                               ; preds = %48, %51
  %56 = sext i32 %42 to i64
  %57 = getelementptr inbounds ptr, ptr %2, i64 %56
  %58 = load ptr, ptr %57, align 8, !tbaa !9
  %59 = tail call i32 @parse_option(ptr noundef %0, ptr noundef nonnull %49, ptr noundef %58, ptr noundef %3)
  %60 = icmp slt i32 %59, 0
  br i1 %60, label %.outer._crit_edge, label %61

61:                                               ; preds = %55
  %62 = add nsw i32 %59, %42
  br label %66

63:                                               ; preds = %48, %.lr.ph.split
  %64 = tail call i32 %4(ptr noundef %0, ptr noundef nonnull %45) #15
  %65 = icmp slt i32 %64, 0
  br i1 %65, label %.outer._crit_edge, label %66

66:                                               ; preds = %63, %61
  %.1 = phi i32 [ %62, %61 ], [ %42, %63 ]
  %67 = icmp slt i32 %.1, %1
  br i1 %67, label %.lr.ph.split, label %.outer._crit_edge, !llvm.loop !48

.outer._crit_edge:                                ; preds = %.outer.loopexit.split, %55, %63, %66, %.outer.loopexit.split.us.us, %20, %28, %35, %40, %5
  %.022 = phi i32 [ 0, %5 ], [ 0, %40 ], [ %38, %35 ], [ 0, %28 ], [ %24, %20 ], [ 0, %.outer.loopexit.split.us.us ], [ 0, %66 ], [ %64, %63 ], [ %59, %55 ], [ 0, %.outer.loopexit.split ]
  ret i32 %.022
}